target datalayout = "e-m:e-p270:32:32-p271:32:32-p272:64:64-i64:64-i128:128-f80:128-n8:16:32:64-S128"
target triple = "x86_64-unknown-linux-gnu"

@_ZTI17DeadlyImportError = linkonce_odr constant { ptr, ptr, ptr } { ptr getelementptr inbounds (ptr, ptr @_ZTVN10__cxxabiv120__si_class_type_infoE, i64 2), ptr @_ZTS17DeadlyImportError, ptr @_ZTI15DeadlyErrorBase }, comdat, align 8
@.str.4 = private unnamed_addr constant [29 x i8] c"LWOB: Unexpected end of file\00", align 1

; Function Attrs: mustprogress uwtable
define hidden void @_ZN6Assimp11LWOImporter22CountVertsAndFacesLWOBERjS1_RPtPKtj(ptr noundef nonnull align 8 dereferenceable(233) %this, ptr noundef nonnull align 4 dereferenceable(4) %verts, ptr noundef nonnull align 4 dereferenceable(4) %faces, ptr noundef nonnull align 8 dereferenceable(8) %cursor, ptr noundef %end, i32 noundef %max) #2 align 2 personality ptr @__gxx_personality_v0 {
entry:
  %this.addr = alloca ptr, align 8
  %verts.addr = alloca ptr, align 8
  %faces.addr = alloca ptr, align 8
  %cursor.addr = alloca ptr, align 8
  %end.addr = alloca ptr, align 8
  %max.addr = alloca i32, align 4
  %numIndices = alloca i16, align 2
  %exn.slot = alloca ptr, align 8
  %ehselector.slot = alloca i32, align 4
  %surface = alloca i16, align 2
  store ptr %this, ptr %this.addr, align 8
  store ptr %verts, ptr %verts.addr, align 8
  store ptr %faces, ptr %faces.addr, align 8
  store ptr %cursor, ptr %cursor.addr, align 8
  store ptr %end, ptr %end.addr, align 8
  store i32 %max, ptr %max.addr, align 4
  %this1 = load ptr, ptr %this.addr, align 8
  br label %while.cond

while.cond:                                       ; preds = %if.end23, %entry
  %0 = load ptr, ptr %cursor.addr, align 8
  %1 = load ptr, ptr %0, align 8
  %2 = load ptr, ptr %end.addr, align 8
  %cmp = icmp ult ptr %1, %2
  br i1 %cmp, label %land.rhs, label %land.end

land.rhs:                                         ; preds = %while.cond
  %3 = load i32, ptr %max.addr, align 4
  %dec = add i32 %3, -1
  store i32 %dec, ptr %max.addr, align 4
  %tobool = icmp ne i32 %3, 0
  br label %land.end

land.end:                                         ; preds = %land.rhs, %while.cond
  %4 = phi i1 [ false, %while.cond ], [ %tobool, %land.rhs ]
  br i1 %4, label %while.body, label %while.end

while.body:                                       ; preds = %land.end
  %5 = load ptr, ptr %end.addr, align 8
  %6 = load ptr, ptr %cursor.addr, align 8
  %7 = load ptr, ptr %6, align 8
  %sub.ptr.lhs.cast = ptrtoint ptr %5 to i64
  %sub.ptr.rhs.cast = ptrtoint ptr %7 to i64
  %sub.ptr.sub = sub i64 %sub.ptr.lhs.cast, %sub.ptr.rhs.cast
  %sub.ptr.div = sdiv exact i64 %sub.ptr.sub, 2
  %cmp2 = icmp slt i64 %sub.ptr.div, 2
  br i1 %cmp2, label %if.then, label %if.end

if.then:                                          ; preds = %while.body
  %exception = call ptr @__cxa_allocate_exception(i64 16) #13
  invoke void @_ZN17DeadlyImportErrorC2EPKc(ptr noundef nonnull align 8 dereferenceable(16) %exception, ptr noundef @.str.4)
          to label %invoke.cont unwind label %lpad

invoke.cont:                                      ; preds = %if.then
  call void @__cxa_throw(ptr %exception, ptr @_ZTI17DeadlyImportError, ptr @_ZN17DeadlyImportErrorD2Ev) #14
  unreachable

lpad:                                             ; preds = %if.then
  %8 = landingpad { ptr, i32 }
          cleanup
  %9 = extractvalue { ptr, i32 } %8, 0
  store ptr %9, ptr %exn.slot, align 8
  %10 = extractvalue { ptr, i32 } %8, 1
  store i32 %10, ptr %ehselector.slot, align 4
  call void @__cxa_free_exception(ptr %exception) #13
  br label %eh.resume

if.end:                                           ; preds = %while.body
  %11 = load ptr, ptr %cursor.addr, align 8
  %12 = load ptr, ptr %11, align 8
  %incdec.ptr = getelementptr inbounds i16, ptr %12, i32 1
  store ptr %incdec.ptr, ptr %11, align 8
  call void @llvm.memcpy.p0.p0.i64(ptr align 2 %numIndices, ptr align 2 %12, i64 2, i1 false)
  %13 = load ptr, ptr %end.addr, align 8
  %14 = load ptr, ptr %cursor.addr, align 8
  %15 = load ptr, ptr %14, align 8
  %sub.ptr.lhs.cast3 = ptrtoint ptr %13 to i64
  %sub.ptr.rhs.cast4 = ptrtoint ptr %15 to i64
  %sub.ptr.sub5 = sub i64 %sub.ptr.lhs.cast3, %sub.ptr.rhs.cast4
  %sub.ptr.div6 = sdiv exact i64 %sub.ptr.sub5, 2
  %16 = load i16, ptr %numIndices, align 2
  %conv = zext i16 %16 to i32
  %add = add nsw i32 1, %conv
  %conv7 = sext i32 %add to i64
  %cmp8 = icmp slt i64 %sub.ptr.div6, %conv7
  br i1 %cmp8, label %if.then9, label %if.end13

if.then9:                                         ; preds = %if.end
  %exception10 = call ptr @__cxa_allocate_exception(i64 16) #13
  invoke void @_ZN17DeadlyImportErrorC2EPKc(ptr noundef nonnull align 8 dereferenceable(16) %exception10, ptr noundef @.str.4)
          to label %invoke.cont12 unwind label %lpad11

invoke.cont12:                                    ; preds = %if.then9
  call void @__cxa_throw(ptr %exception10, ptr @_ZTI17DeadlyImportError, ptr @_ZN17DeadlyImportErrorD2Ev) #14
  unreachable

lpad11:                                           ; preds = %if.then9
  %17 = landingpad { ptr, i32 }
          cleanup
  %18 = extractvalue { ptr, i32 } %17, 0
  store ptr %18, ptr %exn.slot, align 8
  %19 = extractvalue { ptr, i32 } %17, 1
  store i32 %19, ptr %ehselector.slot, align 4
  call void @__cxa_free_exception(ptr %exception10) #13
  br label %eh.resume

if.end13:                                         ; preds = %if.end
  %20 = load i16, ptr %numIndices, align 2
  %conv14 = zext i16 %20 to i32
  %21 = load ptr, ptr %verts.addr, align 8
  %22 = load i32, ptr %21, align 4
  %add15 = add i32 %22, %conv14
  store i32 %add15, ptr %21, align 4
  %23 = load ptr, ptr %faces.addr, align 8
  %24 = load i32, ptr %23, align 4
  %inc = add i32 %24, 1
  store i32 %inc, ptr %23, align 4
  %25 = load i16, ptr %numIndices, align 2
  %conv16 = zext i16 %25 to i32
  %26 = load ptr, ptr %cursor.addr, align 8
  %27 = load ptr, ptr %26, align 8
  %idx.ext = sext i32 %conv16 to i64
  %add.ptr = getelementptr inbounds i16, ptr %27, i64 %idx.ext
  store ptr %add.ptr, ptr %26, align 8
  %28 = load ptr, ptr %cursor.addr, align 8
  %29 = load ptr, ptr %28, align 8
  %incdec.ptr17 = getelementptr inbounds i16, ptr %29, i32 1
  store ptr %incdec.ptr17, ptr %28, align 8
  call void @llvm.memcpy.p0.p0.i64(ptr align 2 %surface, ptr align 2 %29, i64 2, i1 false)
  %30 = load i16, ptr %surface, align 2
  %conv18 = sext i16 %30 to i32
  %cmp19 = icmp slt i32 %conv18, 0
  br i1 %cmp19, label %if.then20, label %if.end23

if.then20:                                        ; preds = %if.end13
  %31 = load ptr, ptr %cursor.addr, align 8
  %32 = load ptr, ptr %31, align 8
  %incdec.ptr21 = getelementptr inbounds i16, ptr %32, i32 1
  store ptr %incdec.ptr21, ptr %31, align 8
  call void @llvm.memcpy.p0.p0.i64(ptr align 2 %numIndices, ptr align 2 %32, i64 2, i1 false)
  %33 = load ptr, ptr %verts.addr, align 8
  %34 = load ptr, ptr %faces.addr, align 8
  %35 = load ptr, ptr %cursor.addr, align 8
  %36 = load ptr, ptr %end.addr, align 8
  %37 = load i16, ptr %numIndices, align 2
  %conv22 = zext i16 %37 to i32
  call void @_ZN6Assimp11LWOImporter22CountVertsAndFacesLWOBERjS1_RPtPKtj(ptr noundef nonnull align 8 dereferenceable(233) %this1, ptr noundef nonnull align 4 dereferenceable(4) %33, ptr noundef nonnull align 4 dereferenceable(4) %34, ptr noundef nonnull align 8 dereferenceable(8) %35, ptr noundef %36, i32 noundef %conv22)
  br label %if.end23

if.end23:                                         ; preds = %if.then20, %if.end13
  br label %while.cond, !llvm.loop !8

while.end:                                        ; preds = %land.end
  ret void

eh.resume:                                        ; preds = %lpad11, %lpad
  %exn = load ptr, ptr %exn.slot, align 8
  %sel = load i32, ptr %ehselector.slot, align 4
  %lpad.val = insertvalue { ptr, i32 } poison, ptr %exn, 0
  %lpad.val24 = insertvalue { ptr, i32 } %lpad.val, i32 %sel, 1
  resume { ptr, i32 } %lpad.val24
}