; Function Attrs: mustprogress uwtable
define hidden void @_ZN6Assimp11LWOImporter22CountVertsAndFacesLWOBERjS1_RPtPKtj(ptr nocapture noundef nonnull readnone align 8 dereferenceable(233) %this, ptr nocapture noundef nonnull align 4 dereferenceable(4) %verts, ptr nocapture noundef nonnull align 4 dereferenceable(4) %faces, ptr nocapture noundef nonnull align 8 dereferenceable(8) %cursor, ptr noundef %end, i32 noundef %max) local_unnamed_addr #0 align 2 personality ptr @__gxx_personality_v0 {
entry:
  %0 = load ptr, ptr %cursor, align 8
  %cmp18 = icmp ult ptr %0, %end
  br i1 %cmp18, label %land.rhs.lr.ph, label %while.end

land.rhs.lr.ph:                                   ; preds = %entry
  %sub.ptr.lhs.cast = ptrtoint ptr %end to i64
  br label %land.rhs

land.rhs:                                         ; preds = %land.rhs.lr.ph, %if.end23
  %1 = phi ptr [ %0, %land.rhs.lr.ph ], [ %7, %if.end23 ]
  %max.addr.019 = phi i32 [ %max, %land.rhs.lr.ph ], [ %dec, %if.end23 ]
  %dec = add i32 %max.addr.019, -1
  %tobool.not = icmp eq i32 %max.addr.019, 0
  br i1 %tobool.not, label %while.end, label %while.body

while.body:                                       ; preds = %land.rhs
  %sub.ptr.rhs.cast = ptrtoint ptr %1 to i64
  %sub.ptr.sub = sub i64 %sub.ptr.lhs.cast, %sub.ptr.rhs.cast
  %cmp2 = icmp slt i64 %sub.ptr.sub, 4
  br i1 %cmp2, label %if.then, label %if.end

if.then:                                          ; preds = %while.body
  %exception = tail call ptr @__cxa_allocate_exception(i64 16) #15
  invoke void @_ZN17DeadlyImportErrorC2EPKc(ptr noundef nonnull align 8 dereferenceable(16) %exception, ptr noundef nonnull @.str.4)
          to label %invoke.cont unwind label %lpad

invoke.cont:                                      ; preds = %if.then
  tail call void @__cxa_throw(ptr nonnull %exception, ptr nonnull @_ZTI17DeadlyImportError, ptr nonnull @_ZN17DeadlyImportErrorD2Ev) #16
  unreachable

lpad:                                             ; preds = %if.then
  %2 = landingpad { ptr, i32 }
          cleanup
  br label %eh.resume

if.end:                                           ; preds = %while.body
  %incdec.ptr = getelementptr inbounds i8, ptr %1, i64 2
  store ptr %incdec.ptr, ptr %cursor, align 8
  %numIndices.0.copyload = load i16, ptr %1, align 2
  %sub.ptr.rhs.cast4 = ptrtoint ptr %incdec.ptr to i64
  %sub.ptr.sub5 = sub i64 %sub.ptr.lhs.cast, %sub.ptr.rhs.cast4
  %sub.ptr.div6 = ashr exact i64 %sub.ptr.sub5, 1
  %conv = zext i16 %numIndices.0.copyload to i32
  %add = add nuw nsw i32 %conv, 1
  %conv7 = zext nneg i32 %add to i64
  %cmp8 = icmp slt i64 %sub.ptr.div6, %conv7
  br i1 %cmp8, label %if.then9, label %if.end13

if.then9:                                         ; preds = %if.end
  %exception10 = tail call ptr @__cxa_allocate_exception(i64 16) #15
  invoke void @_ZN17DeadlyImportErrorC2EPKc(ptr noundef nonnull align 8 dereferenceable(16) %exception10, ptr noundef nonnull @.str.4)
          to label %invoke.cont12 unwind label %lpad11

invoke.cont12:                                    ; preds = %if.then9
  tail call void @__cxa_throw(ptr nonnull %exception10, ptr nonnull @_ZTI17DeadlyImportError, ptr nonnull @_ZN17DeadlyImportErrorD2Ev) #16
  unreachable

lpad11:                                           ; preds = %if.then9
  %3 = landingpad { ptr, i32 }
          cleanup
  br label %eh.resume

if.end13:                                         ; preds = %if.end
  %4 = load i32, ptr %verts, align 4
  %add15 = add i32 %4, %conv
  store i32 %add15, ptr %verts, align 4
  %5 = load i32, ptr %faces, align 4
  %inc = add i32 %5, 1
  store i32 %inc, ptr %faces, align 4
  %6 = load ptr, ptr %cursor, align 8
  %idx.ext = zext i16 %numIndices.0.copyload to i64
  %add.ptr = getelementptr inbounds i16, ptr %6, i64 %idx.ext
  %incdec.ptr17 = getelementptr inbounds i8, ptr %add.ptr, i64 2
  store ptr %incdec.ptr17, ptr %cursor, align 8
  %surface.0.copyload = load i16, ptr %add.ptr, align 2
  %cmp19 = icmp slt i16 %surface.0.copyload, 0
  br i1 %cmp19, label %if.then20, label %if.end23

if.then20:                                        ; preds = %if.end13
  %incdec.ptr21 = getelementptr inbounds i8, ptr %add.ptr, i64 4
  store ptr %incdec.ptr21, ptr %cursor, align 8
  %numIndices.0.copyload3 = load i16, ptr %incdec.ptr17, align 2
  %conv22 = zext i16 %numIndices.0.copyload3 to i32
  tail call void @_ZN6Assimp11LWOImporter22CountVertsAndFacesLWOBERjS1_RPtPKtj(ptr noundef nonnull align 8 dereferenceable(233) %this, ptr noundef nonnull align 4 dereferenceable(4) %verts, ptr noundef nonnull align 4 dereferenceable(4) %faces, ptr noundef nonnull align 8 dereferenceable(8) %cursor, ptr noundef nonnull %end, i32 noundef %conv22)
  %.pre = load ptr, ptr %cursor, align 8
  br label %if.end23

if.end23:                                         ; preds = %if.then20, %if.end13
  %7 = phi ptr [ %.pre, %if.then20 ], [ %incdec.ptr17, %if.end13 ]
  %cmp = icmp ult ptr %7, %end
  br i1 %cmp, label %land.rhs, label %while.end, !llvm.loop !9

while.end:                                        ; preds = %land.rhs, %if.end23, %entry
  ret void

eh.resume:                                        ; preds = %lpad11, %lpad
  %exception10.sink = phi ptr [ %exception10, %lpad11 ], [ %exception, %lpad ]
  %.pn = phi { ptr, i32 } [ %3, %lpad11 ], [ %2, %lpad ]
  tail call void @__cxa_free_exception(ptr %exception10.sink) #15
  resume { ptr, i32 } %.pn
}